target datalayout = "e-m:e-p270:32:32-p271:32:32-p272:64:64-i64:64-i128:128-f80:128-n8:16:32:64-S128"
target triple = "x86_64-pc-linux-gnu"

%"struct.std::pair" = type { i32, i32 }
%"class.frozen::map.10" = type { [4 x i8], %"class.frozen::bits::carray.11" }
%"class.frozen::bits::carray.11" = type { [112 x %"struct.std::pair"] }

; Function Attrs: mustprogress nounwind uwtable
define linkonce_odr hidden noundef nonnull align 4 dereferenceable(4) ptr @_ZNSt10__pair_getILm0EE11__const_getIN4LIEF3ELF10Relocation4TYPEEiEERKT_RKSt4pairIS6_T0_E(ptr noundef nonnull align 4 dereferenceable(8) %0) #0 comdat align 2 {
  %2 = alloca ptr, align 8
  store ptr %0, ptr %2, align 8, !tbaa !7
  %3 = load ptr, ptr %2, align 8, !tbaa !7
  %4 = getelementptr inbounds nuw %"struct.std::pair", ptr %3, i32 0, i32 0
  ret ptr %4
}

; Function Attrs: mustprogress nounwind uwtable
define linkonce_odr hidden noundef ptr @_ZNK6frozen4bits6carrayISt4pairIN4LIEF3ELF10Relocation4TYPEEiELm112EE5beginEv(ptr noundef nonnull align 4 dereferenceable(896) %0) #0 comdat align 2 {
  %2 = alloca ptr, align 8
  store ptr %0, ptr %2, align 8, !tbaa !55
  %3 = load ptr, ptr %2, align 8
  %4 = getelementptr inbounds nuw %"class.frozen::bits::carray.11", ptr %3, i32 0, i32 0
  %5 = getelementptr inbounds [112 x %"struct.std::pair"], ptr %4, i64 0, i64 0
  ret ptr %5
}

; Function Attrs: mustprogress nounwind uwtable
define linkonce_odr hidden noundef zeroext i1 @_ZNKSt4lessIN4LIEF3ELF10Relocation4TYPEEEclERKS3_S6_(ptr noundef nonnull align 1 dereferenceable(1) %0, ptr noundef nonnull align 4 dereferenceable(4) %1, ptr noundef nonnull align 4 dereferenceable(4) %2) #0 comdat align 2 {
  %4 = alloca ptr, align 8
  %5 = alloca ptr, align 8
  %6 = alloca ptr, align 8
  store ptr %0, ptr %4, align 8, !tbaa !43
  store ptr %1, ptr %5, align 8, !tbaa !15
  store ptr %2, ptr %6, align 8, !tbaa !15
  %7 = load ptr, ptr %5, align 8, !tbaa !15
  %8 = load i32, ptr %7, align 4, !tbaa !3
  %9 = load ptr, ptr %6, align 8, !tbaa !15
  %10 = load i32, ptr %9, align 4, !tbaa !3
  %11 = icmp ult i32 %8, %10
  ret i1 %11
}

; Function Attrs: mustprogress nounwind uwtable
define linkonce_odr noundef nonnull align 4 dereferenceable(4) ptr @_ZSt3getILm0EN4LIEF3ELF10Relocation4TYPEEiERKNSt13tuple_elementIXT_ESt4pairIT0_T1_EE4typeERKS8_(ptr noundef nonnull align 4 dereferenceable(8) %0) #0 comdat {
  %2 = alloca ptr, align 8
  store ptr %0, ptr %2, align 8, !tbaa !7
  %3 = load ptr, ptr %2, align 8, !tbaa !7
  %4 = call noundef nonnull align 4 dereferenceable(4) ptr @_ZNSt10__pair_getILm0EE11__const_getIN4LIEF3ELF10Relocation4TYPEEiEERKT_RKSt4pairIS6_T0_E(ptr noundef nonnull align 4 dereferenceable(8) %3) #4
  ret ptr %4
}

; Function Attrs: inlinehint mustprogress nounwind uwtable
define linkonce_odr hidden noundef ptr @_ZN6frozen3mapIN4LIEF3ELF10Relocation4TYPEEiLm112ESt4lessIS4_EE16lower_bound_implIRKS7_S4_EEDTcldtfp_3endEEOT_RKT0_(ptr noundef nonnull align 4 dereferenceable(900) %0, ptr noundef nonnull align 4 dereferenceable(4) %1) #3 comdat align 2 {
  %3 = alloca ptr, align 8
  %4 = alloca ptr, align 8
  store ptr %0, ptr %3, align 8, !tbaa !26
  store ptr %1, ptr %4, align 8, !tbaa !15
  %5 = load ptr, ptr %3, align 8, !tbaa !26
  %6 = getelementptr inbounds nuw %"class.frozen::map.10", ptr %5, i32 0, i32 1
  %7 = call noundef ptr @_ZNK6frozen4bits6carrayISt4pairIN4LIEF3ELF10Relocation4TYPEEiELm112EE5beginEv(ptr noundef nonnull align 4 dereferenceable(896) %6) #4
  %8 = load ptr, ptr %4, align 8, !tbaa !15
  %9 = load ptr, ptr %3, align 8, !tbaa !26
  %10 = call noundef ptr @_ZN6frozen4bits11lower_boundILm112EPKSt4pairIN4LIEF3ELF10Relocation4TYPEEiES6_NS_4impl10CompareKeyISt4lessIS6_EEEEET0_SF_RKT1_RKT2_(ptr noundef %7, ptr noundef nonnull align 4 dereferenceable(4) %8, ptr noundef nonnull align 1 dereferenceable(1) %9)
  ret ptr %10
}

; Function Attrs: mustprogress nounwind uwtable
define linkonce_odr hidden noundef i32 @_ZNK6frozen4impl10CompareKeyISt4lessIN4LIEF3ELF10Relocation4TYPEEEEclIS6_S6_iEEiRKT_RKSt4pairIT0_T1_E(ptr noundef nonnull align 1 dereferenceable(1) %0, ptr noundef nonnull align 4 dereferenceable(4) %1, ptr noundef nonnull align 4 dereferenceable(8) %2) #0 comdat align 2 {
  %4 = alloca ptr, align 8
  %5 = alloca ptr, align 8
  %6 = alloca ptr, align 8
  store ptr %0, ptr %4, align 8, !tbaa !34
  store ptr %1, ptr %5, align 8, !tbaa !15
  store ptr %2, ptr %6, align 8, !tbaa !7
  %7 = load ptr, ptr %4, align 8
  %8 = load ptr, ptr %5, align 8, !tbaa !15
  %9 = load ptr, ptr %6, align 8, !tbaa !7
  %10 = call noundef nonnull align 4 dereferenceable(4) ptr @_ZSt3getILm0EN4LIEF3ELF10Relocation4TYPEEiERKNSt13tuple_elementIXT_ESt4pairIT0_T1_EE4typeERKS8_(ptr noundef nonnull align 4 dereferenceable(8) %9) #4
  %11 = call noundef zeroext i1 @_ZNKSt4lessIN4LIEF3ELF10Relocation4TYPEEEclERKS3_S6_(ptr noundef nonnull align 1 dereferenceable(1) %7, ptr noundef nonnull align 4 dereferenceable(4) %8, ptr noundef nonnull align 4 dereferenceable(4) %10)
  %12 = zext i1 %11 to i32
  ret i32 %12
}

; Function Attrs: mustprogress nounwind uwtable
define linkonce_odr hidden noundef ptr @_ZNK6frozen3mapIN4LIEF3ELF10Relocation4TYPEEiLm112ESt4lessIS4_EE11lower_boundIS4_EEPKSt4pairIS4_iERKT_(ptr noundef nonnull align 4 dereferenceable(900) %0, ptr noundef nonnull align 4 dereferenceable(4) %1) #0 comdat align 2 {
  %3 = alloca ptr, align 8
  %4 = alloca ptr, align 8
  store ptr %0, ptr %3, align 8, !tbaa !26
  store ptr %1, ptr %4, align 8, !tbaa !15
  %5 = load ptr, ptr %3, align 8
  %6 = load ptr, ptr %4, align 8, !tbaa !15
  %7 = call noundef ptr @_ZN6frozen3mapIN4LIEF3ELF10Relocation4TYPEEiLm112ESt4lessIS4_EE16lower_bound_implIRKS7_S4_EEDTcldtfp_3endEEOT_RKT0_(ptr noundef nonnull align 4 dereferenceable(900) %5, ptr noundef nonnull align 4 dereferenceable(4) %6)
  ret ptr %7
}

; Function Attrs: mustprogress nounwind uwtable
define linkonce_odr hidden noundef ptr @_ZNK6frozen4bits6carrayISt4pairIN4LIEF3ELF10Relocation4TYPEEiELm112EE3endEv(ptr noundef nonnull align 4 dereferenceable(896) %0) #0 comdat align 2 {
  %2 = alloca ptr, align 8
  store ptr %0, ptr %2, align 8, !tbaa !55
  %3 = load ptr, ptr %2, align 8
  %4 = getelementptr inbounds nuw %"class.frozen::bits::carray.11", ptr %3, i32 0, i32 0
  %5 = getelementptr inbounds [112 x %"struct.std::pair"], ptr %4, i64 0, i64 0
  %6 = getelementptr inbounds nuw %"struct.std::pair", ptr %5, i64 112
  ret ptr %6
}

; Function Attrs: inlinehint mustprogress nounwind uwtable
define linkonce_odr hidden noundef ptr @_ZN6frozen3mapIN4LIEF3ELF10Relocation4TYPEEiLm112ESt4lessIS4_EE9find_implIRKS7_S4_EEDaOT_RKT0_(ptr noundef nonnull align 4 dereferenceable(900) %0, ptr noundef nonnull align 4 dereferenceable(4) %1) #3 comdat align 2 {
  %3 = alloca ptr, align 8
  %4 = alloca ptr, align 8
  %5 = alloca ptr, align 8
  %6 = alloca ptr, align 8
  %7 = alloca i32, align 4
  store ptr %0, ptr %4, align 8, !tbaa !26
  store ptr %1, ptr %5, align 8, !tbaa !15
  call void @llvm.lifetime.start.p0(i64 8, ptr %6) #4
  %8 = load ptr, ptr %4, align 8, !tbaa !26
  %9 = load ptr, ptr %5, align 8, !tbaa !15
  %10 = call noundef ptr @_ZNK6frozen3mapIN4LIEF3ELF10Relocation4TYPEEiLm112ESt4lessIS4_EE11lower_boundIS4_EEPKSt4pairIS4_iERKT_(ptr noundef nonnull align 4 dereferenceable(900) %8, ptr noundef nonnull align 4 dereferenceable(4) %9)
  store ptr %10, ptr %6, align 8, !tbaa !7
  %11 = load ptr, ptr %6, align 8, !tbaa !7
  %12 = load ptr, ptr %4, align 8, !tbaa !26
  %13 = call noundef ptr @_ZNK6frozen3mapIN4LIEF3ELF10Relocation4TYPEEiLm112ESt4lessIS4_EE3endEv(ptr noundef nonnull align 4 dereferenceable(900) %12)
  %14 = icmp ne ptr %11, %13
  br i1 %14, label %15, label %23

15:                                               ; preds = %2
  %16 = load ptr, ptr %4, align 8, !tbaa !26
  %17 = load ptr, ptr %5, align 8, !tbaa !15
  %18 = load ptr, ptr %6, align 8, !tbaa !7
  %19 = call noundef i32 @_ZNK6frozen4impl10CompareKeyISt4lessIN4LIEF3ELF10Relocation4TYPEEEEclIS6_S6_iEEiRKT_RKSt4pairIT0_T1_E(ptr noundef nonnull align 1 dereferenceable(1) %16, ptr noundef nonnull align 4 dereferenceable(4) %17, ptr noundef nonnull align 4 dereferenceable(8) %18)
  %20 = icmp ne i32 %19, 0
  br i1 %20, label %23, label %21

21:                                               ; preds = %15
  %22 = load ptr, ptr %6, align 8, !tbaa !7
  store ptr %22, ptr %3, align 8
  store i32 1, ptr %7, align 4
  br label %26

23:                                               ; preds = %15, %2
  %24 = load ptr, ptr %4, align 8, !tbaa !26
  %25 = call noundef ptr @_ZNK6frozen3mapIN4LIEF3ELF10Relocation4TYPEEiLm112ESt4lessIS4_EE3endEv(ptr noundef nonnull align 4 dereferenceable(900) %24)
  store ptr %25, ptr %3, align 8
  store i32 1, ptr %7, align 4
  br label %26

26:                                               ; preds = %23, %21
  call void @llvm.lifetime.end.p0(i64 8, ptr %6) #4
  %27 = load ptr, ptr %3, align 8
  ret ptr %27
}

; Function Attrs: mustprogress nounwind uwtable
define linkonce_odr hidden noundef ptr @_ZNK6frozen3mapIN4LIEF3ELF10Relocation4TYPEEiLm112ESt4lessIS4_EE3endEv(ptr noundef nonnull align 4 dereferenceable(900) %0) #0 comdat align 2 {
  %2 = alloca ptr, align 8
  store ptr %0, ptr %2, align 8, !tbaa !26
  %3 = load ptr, ptr %2, align 8
  %4 = getelementptr inbounds nuw %"class.frozen::map.10", ptr %3, i32 0, i32 1
  %5 = call noundef ptr @_ZNK6frozen4bits6carrayISt4pairIN4LIEF3ELF10Relocation4TYPEEiELm112EE3endEv(ptr noundef nonnull align 4 dereferenceable(896) %4) #4
  ret ptr %5
}

; Function Attrs: mustprogress nounwind uwtable
define linkonce_odr hidden noundef ptr @_ZNK6frozen3mapIN4LIEF3ELF10Relocation4TYPEEiLm112ESt4lessIS4_EE4findIS4_EEPKSt4pairIS4_iERKT_(ptr noundef nonnull align 4 dereferenceable(900) %0, ptr noundef nonnull align 4 dereferenceable(4) %1) #0 comdat align 2 {
  %3 = alloca ptr, align 8
  %4 = alloca ptr, align 8
  store ptr %0, ptr %3, align 8, !tbaa !26
  store ptr %1, ptr %4, align 8, !tbaa !15
  %5 = load ptr, ptr %3, align 8
  %6 = load ptr, ptr %4, align 8, !tbaa !15
  %7 = call noundef ptr @_ZN6frozen3mapIN4LIEF3ELF10Relocation4TYPEEiLm112ESt4lessIS4_EE9find_implIRKS7_S4_EEDaOT_RKT0_(ptr noundef nonnull align 4 dereferenceable(900) %5, ptr noundef nonnull align 4 dereferenceable(4) %6)
  ret ptr %7
}

; Function Attrs: mustprogress nounwind uwtable
define hidden noundef i32 @_ZN4LIEF3ELF10get_R_MIPSENS0_10Relocation4TYPEE(i32 noundef %0) #0 {
  %2 = alloca i32, align 4
  %3 = alloca %"class.frozen::map.10", align 4
  %4 = alloca ptr, align 8
  store i32 %0, ptr %2, align 4, !tbaa !3
  call void @llvm.lifetime.start.p0(i64 900, ptr %3) #4
  call void @llvm.memcpy.p0.p0.i64(ptr align 4 %3, ptr align 4 @__const._ZN4LIEF3ELF10get_R_MIPSENS0_10Relocation4TYPEE.SIZES, i64 900, i1 false)
  call void @llvm.lifetime.start.p0(i64 8, ptr %4) #4
  %5 = call noundef ptr @_ZNK6frozen3mapIN4LIEF3ELF10Relocation4TYPEEiLm112ESt4lessIS4_EE4findIS4_EEPKSt4pairIS4_iERKT_(ptr noundef nonnull align 4 dereferenceable(900) %3, ptr noundef nonnull align 4 dereferenceable(4) %2)
  store ptr %5, ptr %4, align 8, !tbaa !7
  %6 = load ptr, ptr %4, align 8, !tbaa !7
  %7 = call noundef ptr @_ZNK6frozen3mapIN4LIEF3ELF10Relocation4TYPEEiLm112ESt4lessIS4_EE3endEv(ptr noundef nonnull align 4 dereferenceable(900) %3)
  %8 = icmp eq ptr %6, %7
  br i1 %8, label %9, label %10

9:                                                ; preds = %1
  br label %14

10:                                               ; preds = %1
  %11 = load ptr, ptr %4, align 8, !tbaa !7
  %12 = getelementptr inbounds nuw %"struct.std::pair", ptr %11, i32 0, i32 1
  %13 = load i32, ptr %12, align 4, !tbaa !10
  br label %14

14:                                               ; preds = %10, %9
  %15 = phi i32 [ -1, %9 ], [ %13, %10 ]
  call void @llvm.lifetime.end.p0(i64 8, ptr %4) #4
  call void @llvm.lifetime.end.p0(i64 900, ptr %3) #4
  ret i32 %15
}