; Function Attrs: mustprogress nounwind uwtable
define hidden noundef i32 @_ZN4LIEF3ELF10get_R_MIPSENS0_10Relocation4TYPEE(i32 noundef %0) local_unnamed_addr #3 {
  %2 = alloca i32, align 4
  %3 = alloca %"class.frozen::map.10", align 4
  store i32 %0, ptr %2, align 4, !tbaa !3
  call void @llvm.lifetime.start.p0(i64 900, ptr nonnull %3) #4
  call void @llvm.memcpy.p0.p0.i64(ptr noundef nonnull align 4 dereferenceable(900) %3, ptr noundef nonnull align 4 dereferenceable(900) @__const._ZN4LIEF3ELF10get_R_MIPSENS0_10Relocation4TYPEE.SIZES, i64 900, i1 false)
  %4 = getelementptr inbounds nuw i8, ptr %3, i64 4
  %5 = call noundef ptr @_ZN6frozen4bits11lower_boundILm112EPKSt4pairIN4LIEF3ELF10Relocation4TYPEEiES6_NS_4impl10CompareKeyISt4lessIS6_EEEEET0_SF_RKT1_RKT2_(ptr noundef nonnull %4, ptr noundef nonnull align 4 dereferenceable(4) %2, ptr noundef nonnull align 4 dereferenceable(900) %3)
  %6 = getelementptr inbounds nuw i8, ptr %3, i64 900
  %.not.i.i = icmp eq ptr %5, %6
  br i1 %.not.i.i, label %_ZNK6frozen3mapIN4LIEF3ELF10Relocation4TYPEEiLm112ESt4lessIS4_EE4findIS4_EEPKSt4pairIS4_iERKT_.exit.thread, label %7

7:                                                ; preds = %1
  %8 = load i32, ptr %2, align 4, !tbaa !3
  %9 = load i32, ptr %5, align 4, !tbaa !3
  %.not12.i.i = icmp ult i32 %8, %9
  br i1 %.not12.i.i, label %_ZNK6frozen3mapIN4LIEF3ELF10Relocation4TYPEEiLm112ESt4lessIS4_EE4findIS4_EEPKSt4pairIS4_iERKT_.exit.thread, label %10

10:                                               ; preds = %7
  %11 = getelementptr inbounds nuw i8, ptr %5, i64 4
  %12 = load i32, ptr %11, align 4, !tbaa !7
  br label %_ZNK6frozen3mapIN4LIEF3ELF10Relocation4TYPEEiLm112ESt4lessIS4_EE4findIS4_EEPKSt4pairIS4_iERKT_.exit.thread

_ZNK6frozen3mapIN4LIEF3ELF10Relocation4TYPEEiLm112ESt4lessIS4_EE4findIS4_EEPKSt4pairIS4_iERKT_.exit.thread: ; preds = %7, %1, %10
  %13 = phi i32 [ %12, %10 ], [ -1, %1 ], [ -1, %7 ]
  call void @llvm.lifetime.end.p0(i64 900, ptr nonnull %3) #4
  ret i32 %13
}